target datalayout = "e-m:e-p270:32:32-p271:32:32-p272:64:64-i64:64-i128:128-f80:128-n8:16:32:64-S128"
target triple = "x86_64-pc-linux-gnu"

%class.cmComputeTargetDepends = type { ptr, i8, i8, %"class.std::vector", %"class.std::map", %struct.cmGraphAdjacencyList, %struct.cmGraphAdjacencyList, %struct.cmGraphAdjacencyList, %"class.std::vector.11", %"class.std::vector.16", %"class.std::vector.16" }
%"class.std::vector" = type { %"struct.std::_Vector_base" }
%"struct.std::_Vector_base" = type { %"struct.std::_Vector_base<const cmGeneratorTarget *, std::allocator<const cmGeneratorTarget *>>::_Vector_impl" }
%"struct.std::_Vector_base<const cmGeneratorTarget *, std::allocator<const cmGeneratorTarget *>>::_Vector_impl" = type { %"struct.std::_Vector_base<const cmGeneratorTarget *, std::allocator<const cmGeneratorTarget *>>::_Vector_impl_data" }
%"struct.std::_Vector_base<const cmGeneratorTarget *, std::allocator<const cmGeneratorTarget *>>::_Vector_impl_data" = type { ptr, ptr, ptr }
%"class.std::map" = type { %"class.std::_Rb_tree" }
%"class.std::_Rb_tree" = type { %"struct.std::_Rb_tree<const cmGeneratorTarget *, std::pair<const cmGeneratorTarget *const, unsigned long>, std::_Select1st<std::pair<const cmGeneratorTarget *const, unsigned long>>, std::less<const cmGeneratorTarget *>>::_Rb_tree_impl" }
%"struct.std::_Rb_tree<const cmGeneratorTarget *, std::pair<const cmGeneratorTarget *const, unsigned long>, std::_Select1st<std::pair<const cmGeneratorTarget *const, unsigned long>>, std::less<const cmGeneratorTarget *>>::_Rb_tree_impl" = type { [8 x i8], %"struct.std::_Rb_tree_header" }
%"struct.std::_Rb_tree_header" = type { %"struct.std::_Rb_tree_node_base", i64 }
%"struct.std::_Rb_tree_node_base" = type { i32, ptr, ptr, ptr }
%struct.cmGraphAdjacencyList = type { %"class.std::vector.6" }
%"class.std::vector.6" = type { %"struct.std::_Vector_base.7" }
%"struct.std::_Vector_base.7" = type { %"struct.std::_Vector_base<cmGraphEdgeList, std::allocator<cmGraphEdgeList>>::_Vector_impl" }
%"struct.std::_Vector_base<cmGraphEdgeList, std::allocator<cmGraphEdgeList>>::_Vector_impl" = type { %"struct.std::_Vector_base<cmGraphEdgeList, std::allocator<cmGraphEdgeList>>::_Vector_impl_data" }
%"struct.std::_Vector_base<cmGraphEdgeList, std::allocator<cmGraphEdgeList>>::_Vector_impl_data" = type { ptr, ptr, ptr }
%"class.std::vector.11" = type { %"struct.std::_Vector_base.12" }
%"struct.std::_Vector_base.12" = type { %"struct.std::_Vector_base<cmComputeTargetDepends::TargetSideEffects, std::allocator<cmComputeTargetDepends::TargetSideEffects>>::_Vector_impl" }
%"struct.std::_Vector_base<cmComputeTargetDepends::TargetSideEffects, std::allocator<cmComputeTargetDepends::TargetSideEffects>>::_Vector_impl" = type { %"struct.std::_Vector_base<cmComputeTargetDepends::TargetSideEffects, std::allocator<cmComputeTargetDepends::TargetSideEffects>>::_Vector_impl_data" }
%"struct.std::_Vector_base<cmComputeTargetDepends::TargetSideEffects, std::allocator<cmComputeTargetDepends::TargetSideEffects>>::_Vector_impl_data" = type { ptr, ptr, ptr }
%"class.std::vector.16" = type { %"struct.std::_Vector_base.17" }
%"struct.std::_Vector_base.17" = type { %"struct.std::_Vector_base<unsigned long, std::allocator<unsigned long>>::_Vector_impl" }
%"struct.std::_Vector_base<unsigned long, std::allocator<unsigned long>>::_Vector_impl" = type { %"struct.std::_Vector_base<unsigned long, std::allocator<unsigned long>>::_Vector_impl_data" }
%"struct.std::_Vector_base<unsigned long, std::allocator<unsigned long>>::_Vector_impl_data" = type { ptr, ptr, ptr }
%class.cmComputeComponentGraph = type { ptr, %struct.cmGraphAdjacencyList, %"class.std::vector.16", %"class.std::vector.16", %"class.std::vector.405", %"class.std::vector.410", %"class.std::stack", i64, i64 }
%"class.std::vector.405" = type { %"struct.std::_Vector_base.406" }
%"struct.std::_Vector_base.406" = type { %"struct.std::_Vector_base<cmComputeComponentGraph::TarjanEntry, std::allocator<cmComputeComponentGraph::TarjanEntry>>::_Vector_impl" }
%"struct.std::_Vector_base<cmComputeComponentGraph::TarjanEntry, std::allocator<cmComputeComponentGraph::TarjanEntry>>::_Vector_impl" = type { %"struct.std::_Vector_base<cmComputeComponentGraph::TarjanEntry, std::allocator<cmComputeComponentGraph::TarjanEntry>>::_Vector_impl_data" }
%"struct.std::_Vector_base<cmComputeComponentGraph::TarjanEntry, std::allocator<cmComputeComponentGraph::TarjanEntry>>::_Vector_impl_data" = type { ptr, ptr, ptr }
%"class.std::vector.410" = type { %"struct.std::_Vector_base.411" }
%"struct.std::_Vector_base.411" = type { %"struct.std::_Vector_base<cmGraphNodeList, std::allocator<cmGraphNodeList>>::_Vector_impl" }
%"struct.std::_Vector_base<cmGraphNodeList, std::allocator<cmGraphNodeList>>::_Vector_impl" = type { %"struct.std::_Vector_base<cmGraphNodeList, std::allocator<cmGraphNodeList>>::_Vector_impl_data" }
%"struct.std::_Vector_base<cmGraphNodeList, std::allocator<cmGraphNodeList>>::_Vector_impl_data" = type { ptr, ptr, ptr }
%"class.std::stack" = type { %"class.std::deque" }
%"class.std::deque" = type { %"class.std::_Deque_base" }
%"class.std::_Deque_base" = type { %"struct.std::_Deque_base<unsigned long, std::allocator<unsigned long>>::_Deque_impl" }
%"struct.std::_Deque_base<unsigned long, std::allocator<unsigned long>>::_Deque_impl" = type { %"struct.std::_Deque_base<unsigned long, std::allocator<unsigned long>>::_Deque_impl_data" }
%"struct.std::_Deque_base<unsigned long, std::allocator<unsigned long>>::_Deque_impl_data" = type { ptr, i64, %"struct.std::_Deque_iterator", %"struct.std::_Deque_iterator" }
%"struct.std::_Deque_iterator" = type { ptr, ptr, ptr, ptr }
%"class.__gnu_cxx::__normal_iterator.875" = type { ptr }
%struct.cmGraphNodeList = type { %"class.std::vector.16" }

; Function Attrs: mustprogress nounwind uwtable
define linkonce_odr dso_local noundef nonnull align 8 dereferenceable(8) ptr @_ZNK9__gnu_cxx17__normal_iteratorIPKmSt6vectorImSaImEEE4baseEv(ptr noundef nonnull align 8 dereferenceable(8) %0) #6 comdat align 2 {
  %2 = alloca ptr, align 8
  store ptr %0, ptr %2, align 8, !tbaa !500
  %3 = load ptr, ptr %2, align 8
  %4 = getelementptr inbounds nuw %"class.__gnu_cxx::__normal_iterator.875", ptr %3, i32 0, i32 0
  ret ptr %4
}

; Function Attrs: mustprogress nounwind uwtable
define linkonce_odr dso_local void @_ZN9__gnu_cxx17__normal_iteratorIPKmSt6vectorImSaImEEEC2ERKS2_(ptr noundef nonnull align 8 dereferenceable(8) %0, ptr noundef nonnull align 8 dereferenceable(8) %1) unnamed_addr #6 comdat align 2 {
  %3 = alloca ptr, align 8
  %4 = alloca ptr, align 8
  store ptr %0, ptr %3, align 8, !tbaa !500
  store ptr %1, ptr %4, align 8, !tbaa !968
  %5 = load ptr, ptr %3, align 8
  %6 = getelementptr inbounds nuw %"class.__gnu_cxx::__normal_iterator.875", ptr %5, i32 0, i32 0
  %7 = load ptr, ptr %4, align 8, !tbaa !968
  %8 = load ptr, ptr %7, align 8, !tbaa !462
  store ptr %8, ptr %6, align 8, !tbaa !502
  ret void
}

; Function Attrs: mustprogress nounwind uwtable
define linkonce_odr dso_local noundef nonnull align 8 dereferenceable(8) ptr @_ZN9__gnu_cxx17__normal_iteratorIPKmSt6vectorImSaImEEEppEv(ptr noundef nonnull align 8 dereferenceable(8) %0) #6 comdat align 2 {
  %2 = alloca ptr, align 8
  store ptr %0, ptr %2, align 8, !tbaa !500
  %3 = load ptr, ptr %2, align 8
  %4 = getelementptr inbounds nuw %"class.__gnu_cxx::__normal_iterator.875", ptr %3, i32 0, i32 0
  %5 = load ptr, ptr %4, align 8, !tbaa !502
  %6 = getelementptr inbounds nuw i64, ptr %5, i32 1
  store ptr %6, ptr %4, align 8, !tbaa !502
  ret ptr %3
}

; Function Attrs: mustprogress nounwind uwtable
define linkonce_odr dso_local noundef nonnull align 8 dereferenceable(8) ptr @_ZNSt6vectorIPK17cmGeneratorTargetSaIS2_EEixEm(ptr noundef nonnull align 8 dereferenceable(24) %0, i64 noundef %1) #6 comdat align 2 {
  %3 = alloca ptr, align 8
  %4 = alloca i64, align 8
  store ptr %0, ptr %3, align 8, !tbaa !61
  store i64 %1, ptr %4, align 8, !tbaa !17
  %5 = load ptr, ptr %3, align 8
  %6 = getelementptr inbounds nuw %"struct.std::_Vector_base", ptr %5, i32 0, i32 0
  %7 = getelementptr inbounds nuw %"struct.std::_Vector_base<const cmGeneratorTarget *, std::allocator<const cmGeneratorTarget *>>::_Vector_impl_data", ptr %6, i32 0, i32 0
  %8 = load ptr, ptr %7, align 8, !tbaa !204
  %9 = load i64, ptr %4, align 8, !tbaa !17
  %10 = getelementptr inbounds nuw ptr, ptr %8, i64 %9
  ret ptr %10
}

; Function Attrs: mustprogress nounwind uwtable
define linkonce_odr dso_local noundef nonnull align 8 dereferenceable(8) ptr @_ZNK9__gnu_cxx17__normal_iteratorIPKmSt6vectorImSaImEEEdeEv(ptr noundef nonnull align 8 dereferenceable(8) %0) #6 comdat align 2 {
  %2 = alloca ptr, align 8
  store ptr %0, ptr %2, align 8, !tbaa !500
  %3 = load ptr, ptr %2, align 8
  %4 = getelementptr inbounds nuw %"class.__gnu_cxx::__normal_iterator.875", ptr %3, i32 0, i32 0
  %5 = load ptr, ptr %4, align 8, !tbaa !502
  ret ptr %5
}

; Function Attrs: inlinehint mustprogress nounwind uwtable
define linkonce_odr dso_local noundef zeroext i1 @_ZN9__gnu_cxxneIPKmSt6vectorImSaImEEEEbRKNS_17__normal_iteratorIT_T0_EESB_(ptr noundef nonnull align 8 dereferenceable(8) %0, ptr noundef nonnull align 8 dereferenceable(8) %1) #7 comdat {
  %3 = alloca ptr, align 8
  %4 = alloca ptr, align 8
  store ptr %0, ptr %3, align 8, !tbaa !500
  store ptr %1, ptr %4, align 8, !tbaa !500
  %5 = load ptr, ptr %3, align 8, !tbaa !500
  %6 = call noundef nonnull align 8 dereferenceable(8) ptr @_ZNK9__gnu_cxx17__normal_iteratorIPKmSt6vectorImSaImEEE4baseEv(ptr noundef nonnull align 8 dereferenceable(8) %5) #3
  %7 = load ptr, ptr %6, align 8, !tbaa !462
  %8 = load ptr, ptr %4, align 8, !tbaa !500
  %9 = call noundef nonnull align 8 dereferenceable(8) ptr @_ZNK9__gnu_cxx17__normal_iteratorIPKmSt6vectorImSaImEEE4baseEv(ptr noundef nonnull align 8 dereferenceable(8) %8) #3
  %10 = load ptr, ptr %9, align 8, !tbaa !462
  %11 = icmp ne ptr %7, %10
  ret i1 %11
}

; Function Attrs: mustprogress nounwind uwtable
define linkonce_odr dso_local ptr @_ZNKSt6vectorImSaImEE3endEv(ptr noundef nonnull align 8 dereferenceable(24) %0) #6 comdat align 2 {
  %2 = alloca %"class.__gnu_cxx::__normal_iterator.875", align 8
  %3 = alloca ptr, align 8
  store ptr %0, ptr %3, align 8, !tbaa !69
  %4 = load ptr, ptr %3, align 8
  %5 = getelementptr inbounds nuw %"struct.std::_Vector_base.17", ptr %4, i32 0, i32 0
  %6 = getelementptr inbounds nuw %"struct.std::_Vector_base<unsigned long, std::allocator<unsigned long>>::_Vector_impl_data", ptr %5, i32 0, i32 1
  call void @_ZN9__gnu_cxx17__normal_iteratorIPKmSt6vectorImSaImEEEC2ERKS2_(ptr noundef nonnull align 8 dereferenceable(8) %2, ptr noundef nonnull align 8 dereferenceable(8) %6) #3
  %7 = getelementptr inbounds nuw %"class.__gnu_cxx::__normal_iterator.875", ptr %2, i32 0, i32 0
  %8 = load ptr, ptr %7, align 8
  ret ptr %8
}

; Function Attrs: mustprogress nounwind uwtable
define linkonce_odr dso_local ptr @_ZNKSt6vectorImSaImEE5beginEv(ptr noundef nonnull align 8 dereferenceable(24) %0) #6 comdat align 2 {
  %2 = alloca %"class.__gnu_cxx::__normal_iterator.875", align 8
  %3 = alloca ptr, align 8
  store ptr %0, ptr %3, align 8, !tbaa !69
  %4 = load ptr, ptr %3, align 8
  %5 = getelementptr inbounds nuw %"struct.std::_Vector_base.17", ptr %4, i32 0, i32 0
  %6 = getelementptr inbounds nuw %"struct.std::_Vector_base<unsigned long, std::allocator<unsigned long>>::_Vector_impl_data", ptr %5, i32 0, i32 0
  call void @_ZN9__gnu_cxx17__normal_iteratorIPKmSt6vectorImSaImEEEC2ERKS2_(ptr noundef nonnull align 8 dereferenceable(8) %2, ptr noundef nonnull align 8 dereferenceable(8) %6) #3
  %7 = getelementptr inbounds nuw %"class.__gnu_cxx::__normal_iterator.875", ptr %2, i32 0, i32 0
  %8 = load ptr, ptr %7, align 8
  ret ptr %8
}

; Function Attrs: mustprogress nounwind uwtable
define linkonce_odr dso_local noundef i64 @_ZNKSt6vectorImSaImEE4sizeEv(ptr noundef nonnull align 8 dereferenceable(24) %0) #6 comdat align 2 {
  %2 = alloca ptr, align 8
  store ptr %0, ptr %2, align 8, !tbaa !69
  %3 = load ptr, ptr %2, align 8
  %4 = getelementptr inbounds nuw %"struct.std::_Vector_base.17", ptr %3, i32 0, i32 0
  %5 = getelementptr inbounds nuw %"struct.std::_Vector_base<unsigned long, std::allocator<unsigned long>>::_Vector_impl_data", ptr %4, i32 0, i32 1
  %6 = load ptr, ptr %5, align 8, !tbaa !197
  %7 = getelementptr inbounds nuw %"struct.std::_Vector_base.17", ptr %3, i32 0, i32 0
  %8 = getelementptr inbounds nuw %"struct.std::_Vector_base<unsigned long, std::allocator<unsigned long>>::_Vector_impl_data", ptr %7, i32 0, i32 0
  %9 = load ptr, ptr %8, align 8, !tbaa !196
  %10 = ptrtoint ptr %6 to i64
  %11 = ptrtoint ptr %9 to i64
  %12 = sub i64 %10, %11
  %13 = sdiv exact i64 %12, 8
  ret i64 %13
}

; Function Attrs: mustprogress nounwind uwtable
define linkonce_odr dso_local noundef nonnull align 8 dereferenceable(24) ptr @_ZNKSt6vectorI15cmGraphNodeListSaIS0_EEixEm(ptr noundef nonnull align 8 dereferenceable(24) %0, i64 noundef %1) #6 comdat align 2 {
  %3 = alloca ptr, align 8
  %4 = alloca i64, align 8
  store ptr %0, ptr %3, align 8, !tbaa !227
  store i64 %1, ptr %4, align 8, !tbaa !17
  %5 = load ptr, ptr %3, align 8
  %6 = getelementptr inbounds nuw %"struct.std::_Vector_base.411", ptr %5, i32 0, i32 0
  %7 = getelementptr inbounds nuw %"struct.std::_Vector_base<cmGraphNodeList, std::allocator<cmGraphNodeList>>::_Vector_impl_data", ptr %6, i32 0, i32 0
  %8 = load ptr, ptr %7, align 8, !tbaa !499
  %9 = load i64, ptr %4, align 8, !tbaa !17
  %10 = getelementptr inbounds nuw %struct.cmGraphNodeList, ptr %8, i64 %9
  ret ptr %10
}

; Function Attrs: mustprogress nounwind uwtable
define linkonce_odr dso_local noundef i64 @_ZNKSt6vectorI15cmGraphNodeListSaIS0_EE4sizeEv(ptr noundef nonnull align 8 dereferenceable(24) %0) #6 comdat align 2 {
  %2 = alloca ptr, align 8
  store ptr %0, ptr %2, align 8, !tbaa !227
  %3 = load ptr, ptr %2, align 8
  %4 = getelementptr inbounds nuw %"struct.std::_Vector_base.411", ptr %3, i32 0, i32 0
  %5 = getelementptr inbounds nuw %"struct.std::_Vector_base<cmGraphNodeList, std::allocator<cmGraphNodeList>>::_Vector_impl_data", ptr %4, i32 0, i32 1
  %6 = load ptr, ptr %5, align 8, !tbaa !497
  %7 = getelementptr inbounds nuw %"struct.std::_Vector_base.411", ptr %3, i32 0, i32 0
  %8 = getelementptr inbounds nuw %"struct.std::_Vector_base<cmGraphNodeList, std::allocator<cmGraphNodeList>>::_Vector_impl_data", ptr %7, i32 0, i32 0
  %9 = load ptr, ptr %8, align 8, !tbaa !499
  %10 = ptrtoint ptr %6 to i64
  %11 = ptrtoint ptr %9 to i64
  %12 = sub i64 %10, %11
  %13 = sdiv exact i64 %12, 24
  ret i64 %13
}

; Function Attrs: mustprogress nounwind uwtable
define linkonce_odr dso_local noundef nonnull align 8 dereferenceable(24) ptr @_ZNK23cmComputeComponentGraph13GetComponentsEv(ptr noundef nonnull align 8 dereferenceable(224) %0) #6 comdat align 2 {
  %2 = alloca ptr, align 8
  store ptr %0, ptr %2, align 8, !tbaa !225
  %3 = load ptr, ptr %2, align 8
  %4 = getelementptr inbounds nuw %class.cmComputeComponentGraph, ptr %3, i32 0, i32 5
  ret ptr %4
}

; Function Attrs: mustprogress uwtable
define dso_local noundef zeroext i1 @_ZN22cmComputeTargetDepends15CheckComponentsERK23cmComputeComponentGraph(ptr noundef nonnull align 8 dereferenceable(232) %0, ptr noundef nonnull align 8 dereferenceable(224) %1) #5 align 2 {
  %3 = alloca i1, align 1
  %4 = alloca ptr, align 8
  %5 = alloca ptr, align 8
  %6 = alloca ptr, align 8
  %7 = alloca i64, align 8
  %8 = alloca i64, align 8
  %9 = alloca i32, align 4
  %10 = alloca ptr, align 8
  %11 = alloca ptr, align 8
  %12 = alloca %"class.__gnu_cxx::__normal_iterator.875", align 8
  %13 = alloca %"class.__gnu_cxx::__normal_iterator.875", align 8
  %14 = alloca i64, align 8
  store ptr %0, ptr %4, align 8, !tbaa !20
  store ptr %1, ptr %5, align 8, !tbaa !225
  %15 = load ptr, ptr %4, align 8
  call void @llvm.lifetime.start.p0(i64 8, ptr %6) #3
  %16 = load ptr, ptr %5, align 8, !tbaa !225
  %17 = call noundef nonnull align 8 dereferenceable(24) ptr @_ZNK23cmComputeComponentGraph13GetComponentsEv(ptr noundef nonnull align 8 dereferenceable(224) %16)
  store ptr %17, ptr %6, align 8, !tbaa !227
  call void @llvm.lifetime.start.p0(i64 8, ptr %7) #3
  %18 = load ptr, ptr %6, align 8, !tbaa !227
  %19 = call noundef i64 @_ZNKSt6vectorI15cmGraphNodeListSaIS0_EE4sizeEv(ptr noundef nonnull align 8 dereferenceable(24) %18) #3
  store i64 %19, ptr %7, align 8, !tbaa !17
  call void @llvm.lifetime.start.p0(i64 8, ptr %8) #3
  store i64 0, ptr %8, align 8, !tbaa !17
  br label %20

20:                                               ; preds = %75, %2
  %21 = load i64, ptr %8, align 8, !tbaa !17
  %22 = load i64, ptr %7, align 8, !tbaa !17
  %23 = icmp ult i64 %21, %22
  br i1 %23, label %25, label %24

24:                                               ; preds = %20
  store i32 2, ptr %9, align 4
  br label %78

25:                                               ; preds = %20
  call void @llvm.lifetime.start.p0(i64 8, ptr %10) #3
  %26 = load ptr, ptr %6, align 8, !tbaa !227
  %27 = load i64, ptr %8, align 8, !tbaa !17
  %28 = call noundef nonnull align 8 dereferenceable(24) ptr @_ZNKSt6vectorI15cmGraphNodeListSaIS0_EEixEm(ptr noundef nonnull align 8 dereferenceable(24) %26, i64 noundef %27) #3
  store ptr %28, ptr %10, align 8, !tbaa !229
  %29 = load ptr, ptr %10, align 8, !tbaa !229
  %30 = call noundef i64 @_ZNKSt6vectorImSaImEE4sizeEv(ptr noundef nonnull align 8 dereferenceable(24) %29) #3
  %31 = icmp ult i64 %30, 2
  br i1 %31, label %32, label %33

32:                                               ; preds = %25
  store i32 4, ptr %9, align 4
  br label %72

33:                                               ; preds = %25
  %34 = getelementptr inbounds nuw %class.cmComputeTargetDepends, ptr %15, i32 0, i32 2
  %35 = load i8, ptr %34, align 1, !tbaa !60, !range !206, !noundef !207
  %36 = trunc i8 %35 to i1
  br i1 %36, label %37, label %40

37:                                               ; preds = %33
  %38 = load ptr, ptr %5, align 8, !tbaa !225
  %39 = load i64, ptr %8, align 8, !tbaa !17
  call void @_ZN22cmComputeTargetDepends25ComplainAboutBadComponentERK23cmComputeComponentGraphmb(ptr noundef nonnull align 8 dereferenceable(232) %15, ptr noundef nonnull align 8 dereferenceable(224) %38, i64 noundef %39, i1 noundef zeroext false)
  store i1 false, ptr %3, align 1
  store i32 1, ptr %9, align 4
  br label %72

40:                                               ; preds = %33
  call void @llvm.lifetime.start.p0(i64 8, ptr %11) #3
  %41 = load ptr, ptr %10, align 8, !tbaa !229
  store ptr %41, ptr %11, align 8, !tbaa !229
  call void @llvm.lifetime.start.p0(i64 8, ptr %12) #3
  %42 = load ptr, ptr %11, align 8, !tbaa !229
  %43 = call ptr @_ZNKSt6vectorImSaImEE5beginEv(ptr noundef nonnull align 8 dereferenceable(24) %42) #3
  %44 = getelementptr inbounds nuw %"class.__gnu_cxx::__normal_iterator.875", ptr %12, i32 0, i32 0
  store ptr %43, ptr %44, align 8
  call void @llvm.lifetime.start.p0(i64 8, ptr %13) #3
  %45 = load ptr, ptr %11, align 8, !tbaa !229
  %46 = call ptr @_ZNKSt6vectorImSaImEE3endEv(ptr noundef nonnull align 8 dereferenceable(24) %45) #3
  %47 = getelementptr inbounds nuw %"class.__gnu_cxx::__normal_iterator.875", ptr %13, i32 0, i32 0
  store ptr %46, ptr %47, align 8
  br label %48

48:                                               ; preds = %67, %40
  %49 = call noundef zeroext i1 @_ZN9__gnu_cxxneIPKmSt6vectorImSaImEEEEbRKNS_17__normal_iteratorIT_T0_EESB_(ptr noundef nonnull align 8 dereferenceable(8) %12, ptr noundef nonnull align 8 dereferenceable(8) %13) #3
  br i1 %49, label %51, label %50

50:                                               ; preds = %48
  store i32 5, ptr %9, align 4
  br label %69

51:                                               ; preds = %48
  call void @llvm.lifetime.start.p0(i64 8, ptr %14) #3
  %52 = call noundef nonnull align 8 dereferenceable(8) ptr @_ZNK9__gnu_cxx17__normal_iteratorIPKmSt6vectorImSaImEEEdeEv(ptr noundef nonnull align 8 dereferenceable(8) %12) #3
  %53 = load i64, ptr %52, align 8, !tbaa !17
  store i64 %53, ptr %14, align 8, !tbaa !17
  %54 = getelementptr inbounds nuw %class.cmComputeTargetDepends, ptr %15, i32 0, i32 3
  %55 = load i64, ptr %14, align 8, !tbaa !17
  %56 = call noundef nonnull align 8 dereferenceable(8) ptr @_ZNSt6vectorIPK17cmGeneratorTargetSaIS2_EEixEm(ptr noundef nonnull align 8 dereferenceable(24) %54, i64 noundef %55) #3
  %57 = load ptr, ptr %56, align 8, !tbaa !215
  %58 = call noundef i32 @_ZNK17cmGeneratorTarget7GetTypeEv(ptr noundef nonnull align 8 dereferenceable(2912) %57)
  %59 = icmp ne i32 %58, 1
  br i1 %59, label %60, label %63

60:                                               ; preds = %51
  %61 = load ptr, ptr %5, align 8, !tbaa !225
  %62 = load i64, ptr %8, align 8, !tbaa !17
  call void @_ZN22cmComputeTargetDepends25ComplainAboutBadComponentERK23cmComputeComponentGraphmb(ptr noundef nonnull align 8 dereferenceable(232) %15, ptr noundef nonnull align 8 dereferenceable(224) %61, i64 noundef %62, i1 noundef zeroext false)
  store i1 false, ptr %3, align 1
  store i32 1, ptr %9, align 4
  br label %64

63:                                               ; preds = %51
  store i32 0, ptr %9, align 4
  br label %64

64:                                               ; preds = %63, %60
  call void @llvm.lifetime.end.p0(i64 8, ptr %14) #3
  %65 = load i32, ptr %9, align 4
  switch i32 %65, label %69 [
    i32 0, label %66
  ]

66:                                               ; preds = %64
  br label %67

67:                                               ; preds = %66
  %68 = call noundef nonnull align 8 dereferenceable(8) ptr @_ZN9__gnu_cxx17__normal_iteratorIPKmSt6vectorImSaImEEEppEv(ptr noundef nonnull align 8 dereferenceable(8) %12) #3
  br label %48

69:                                               ; preds = %64, %50
  call void @llvm.lifetime.end.p0(i64 8, ptr %13) #3
  call void @llvm.lifetime.end.p0(i64 8, ptr %12) #3
  call void @llvm.lifetime.end.p0(i64 8, ptr %11) #3
  %70 = load i32, ptr %9, align 4
  switch i32 %70, label %72 [
    i32 5, label %71
  ]

71:                                               ; preds = %69
  store i32 0, ptr %9, align 4
  br label %72

72:                                               ; preds = %71, %69, %37, %32
  call void @llvm.lifetime.end.p0(i64 8, ptr %10) #3
  %73 = load i32, ptr %9, align 4
  switch i32 %73, label %78 [
    i32 0, label %74
    i32 4, label %75
  ]

74:                                               ; preds = %72
  br label %75

75:                                               ; preds = %74, %72
  %76 = load i64, ptr %8, align 8, !tbaa !17
  %77 = add i64 %76, 1
  store i64 %77, ptr %8, align 8, !tbaa !17
  br label %20, !llvm.loop !231

78:                                               ; preds = %72, %24
  call void @llvm.lifetime.end.p0(i64 8, ptr %8) #3
  %79 = load i32, ptr %9, align 4
  switch i32 %79, label %81 [
    i32 2, label %80
  ]

80:                                               ; preds = %78
  store i1 true, ptr %3, align 1
  store i32 1, ptr %9, align 4
  br label %81

81:                                               ; preds = %80, %78
  call void @llvm.lifetime.end.p0(i64 8, ptr %7) #3
  call void @llvm.lifetime.end.p0(i64 8, ptr %6) #3
  %82 = load i1, ptr %3, align 1
  ret i1 %82
}