; Function Attrs: mustprogress uwtable
define dso_local noundef zeroext i1 @_ZN22cmComputeTargetDepends15CheckComponentsERK23cmComputeComponentGraph(ptr noundef nonnull readonly align 8 captures(none) dereferenceable(232) %0, ptr noundef nonnull readonly align 8 captures(none) dereferenceable(224) %1) local_unnamed_addr #5 align 2 {
  %3 = getelementptr inbounds nuw i8, ptr %1, i64 104
  %4 = getelementptr inbounds nuw i8, ptr %1, i64 112
  %5 = load ptr, ptr %4, align 8, !tbaa !213
  %6 = load ptr, ptr %3, align 8, !tbaa !216
  %.not2843 = icmp eq ptr %5, %6
  br i1 %.not2843, label %.critedge30, label %.lr.ph

.lr.ph:                                           ; preds = %2
  %7 = ptrtoint ptr %5 to i64
  %8 = ptrtoint ptr %6 to i64
  %9 = sub i64 %7, %8
  %10 = sdiv exact i64 %9, 24
  %11 = getelementptr inbounds nuw i8, ptr %0, i64 9
  %12 = getelementptr inbounds nuw i8, ptr %0, i64 16
  %umax = tail call i64 @llvm.umax.i64(i64 %10, i64 1)
  br label %13

13:                                               ; preds = %.lr.ph, %.loopexit
  %.02344 = phi i64 [ 0, %.lr.ph ], [ %33, %.loopexit ]
  %14 = load ptr, ptr %3, align 8, !tbaa !216
  %15 = getelementptr inbounds nuw %struct.cmGraphNodeList, ptr %14, i64 %.02344
  %16 = getelementptr inbounds nuw i8, ptr %15, i64 8
  %17 = load ptr, ptr %16, align 8, !tbaa !217
  %18 = load ptr, ptr %15, align 8, !tbaa !179
  %19 = ptrtoint ptr %17 to i64
  %20 = ptrtoint ptr %18 to i64
  %21 = sub i64 %19, %20
  %22 = icmp ult i64 %21, 9
  br i1 %22, label %.loopexit, label %23

23:                                               ; preds = %13
  %24 = load i8, ptr %11, align 1, !tbaa !178, !range !211, !noundef !212
  %25 = trunc nuw i8 %24 to i1
  br i1 %25, label %.critedge30.sink.split, label %.preheader

.preheader:                                       ; preds = %23
  %.not3541 = icmp eq ptr %18, %17
  br i1 %.not3541, label %.loopexit, label %.critedge

26:                                               ; preds = %.critedge
  %27 = getelementptr inbounds nuw i8, ptr %.sroa.031.042, i64 8
  %.not35 = icmp eq ptr %27, %17
  br i1 %.not35, label %.loopexit, label %.critedge

.critedge:                                        ; preds = %.preheader, %26
  %.sroa.031.042 = phi ptr [ %27, %26 ], [ %18, %.preheader ]
  %28 = load i64, ptr %.sroa.031.042, align 8, !tbaa !173
  %29 = load ptr, ptr %12, align 8, !tbaa !181
  %30 = getelementptr inbounds nuw ptr, ptr %29, i64 %28
  %31 = load ptr, ptr %30, align 8, !tbaa !218
  %32 = tail call noundef i32 @_ZNK17cmGeneratorTarget7GetTypeEv(ptr noundef nonnull align 8 dereferenceable(2912) %31)
  %.not = icmp eq i32 %32, 1
  br i1 %.not, label %26, label %.critedge30.sink.split

.loopexit:                                        ; preds = %26, %.preheader, %13
  %33 = add nuw i64 %.02344, 1
  %exitcond.not = icmp eq i64 %33, %umax
  br i1 %exitcond.not, label %.critedge30, label %13, !llvm.loop !220

.critedge30.sink.split:                           ; preds = %23, %.critedge
  tail call void @_ZN22cmComputeTargetDepends25ComplainAboutBadComponentERK23cmComputeComponentGraphmb(ptr noundef nonnull align 8 dereferenceable(232) %0, ptr noundef nonnull align 8 dereferenceable(224) %1, i64 noundef %.02344, i1 noundef zeroext false)
  br label %.critedge30

.critedge30:                                      ; preds = %.loopexit, %.critedge30.sink.split, %2
  %.not2838 = phi i1 [ true, %2 ], [ false, %.critedge30.sink.split ], [ true, %.loopexit ]
  ret i1 %.not2838
}